; Function Attrs: nounwind ssp uwtable
define dso_local i32 @crypto_box_curve25519xchacha20poly1305_easy(ptr noundef nonnull %0, ptr noundef %1, i64 noundef %2, ptr noundef nonnull %3, ptr noundef nonnull %4, ptr noundef nonnull %5) local_unnamed_addr #0 {
  %7 = alloca [32 x i8], align 16
  %8 = alloca [32 x i8], align 16
  %9 = icmp ugt i64 %2, -17
  br i1 %9, label %10, label %11

10:                                               ; preds = %6
  tail call void @sodium_misuse() #7
  unreachable

11:                                               ; preds = %6
  %12 = getelementptr i8, ptr %0, i64 16
  call void @llvm.lifetime.start.p0(i64 32, ptr nonnull %8) #6
  call void @llvm.lifetime.start.p0(i64 32, ptr nonnull %7) #6
  %13 = call i32 @crypto_scalarmult_curve25519(ptr noundef nonnull %7, ptr noundef nonnull %5, ptr noundef nonnull %4) #6
  %.not.i.i = icmp eq i32 %13, 0
  br i1 %.not.i.i, label %crypto_box_curve25519xchacha20poly1305_beforenm.exit.i, label %crypto_box_curve25519xchacha20poly1305_beforenm.exit.thread.i

crypto_box_curve25519xchacha20poly1305_beforenm.exit.thread.i: ; preds = %11
  call void @llvm.lifetime.end.p0(i64 32, ptr nonnull %7) #6
  br label %crypto_box_curve25519xchacha20poly1305_detached.exit

crypto_box_curve25519xchacha20poly1305_beforenm.exit.i: ; preds = %11
  %14 = call i32 @crypto_core_hchacha20(ptr noundef nonnull %8, ptr noundef nonnull @crypto_box_curve25519xchacha20poly1305_beforenm.zero, ptr noundef nonnull %7, ptr noundef null) #6
  call void @llvm.lifetime.end.p0(i64 32, ptr nonnull %7) #6
  %.not.i = icmp eq i32 %14, 0
  br i1 %.not.i, label %15, label %crypto_box_curve25519xchacha20poly1305_detached.exit

15:                                               ; preds = %crypto_box_curve25519xchacha20poly1305_beforenm.exit.i
  %16 = call i32 @crypto_secretbox_xchacha20poly1305_detached(ptr noundef nonnull %12, ptr noundef nonnull %0, ptr noundef %1, i64 noundef %2, ptr noundef nonnull %3, ptr noundef nonnull %8) #6
  call void @sodium_memzero(ptr noundef nonnull %8, i64 noundef 32) #6
  br label %crypto_box_curve25519xchacha20poly1305_detached.exit

crypto_box_curve25519xchacha20poly1305_detached.exit: ; preds = %crypto_box_curve25519xchacha20poly1305_beforenm.exit.thread.i, %crypto_box_curve25519xchacha20poly1305_beforenm.exit.i, %15
  %.0.i = phi i32 [ %16, %15 ], [ -1, %crypto_box_curve25519xchacha20poly1305_beforenm.exit.i ], [ -1, %crypto_box_curve25519xchacha20poly1305_beforenm.exit.thread.i ]
  call void @llvm.lifetime.end.p0(i64 32, ptr nonnull %8) #6
  ret i32 %.0.i
}